target datalayout = "e-m:e-p270:32:32-p271:32:32-p272:64:64-i64:64-i128:128-f80:128-n8:16:32:64-S128"
target triple = "x86_64-pc-linux-gnu"

%struct._zend_executor_globals = type { %struct._zval_struct, %struct._zval_struct, [32 x ptr], ptr, ptr, %struct._zend_array, %struct._zend_array, ptr, i32, i8, %struct._zval_struct, i32, ptr, ptr, ptr, ptr, ptr, ptr, i64, ptr, ptr, i32, ptr, i32, i64, i32, i32, i32, i8, i8, %struct.zend_atomic_bool_s, %struct.zend_atomic_bool_s, ptr, i64, ptr, ptr, %struct._zend_array, %struct._zend_array, i32, i8, %struct._zval_struct, %struct._zval_struct, %struct._zend_stack, %struct._zend_stack, %struct._zend_stack, ptr, i32, i32, i64, ptr, ptr, ptr, %struct._zend_objects_store, %struct._zend_lazy_objects_store, ptr, ptr, ptr, [3 x %struct._zend_op], ptr, i8, i8, i64, i32, i32, ptr, [16 x %struct._HashTableIterator], ptr, %union._zend_function, %struct._zend_op, %struct._zend_array, i64, %struct.zend_get_gc_buffer, ptr, ptr, ptr, i64, i8, i32, ptr, ptr, i64, %struct._zend_call_stack, i64, i64, %struct._zend_strtod_state, [6 x ptr] }
%struct.zend_atomic_bool_s = type { i8 }
%struct._zval_struct = type { %union._zend_value, %union.anon, %union.anon.2 }
%union._zend_value = type { i64 }
%union.anon = type { i32 }
%union.anon.2 = type { i32 }
%struct._zend_stack = type { i32, i32, i32, ptr }
%struct._zend_objects_store = type { ptr, i32, i32, i32 }
%struct._zend_lazy_objects_store = type { %struct._zend_array }
%struct._HashTableIterator = type { ptr, i32, i32 }
%union._zend_function = type { %struct._zend_op_array }
%struct._zend_op_array = type { i8, [3 x i8], i32, ptr, ptr, ptr, i32, i32, ptr, ptr, ptr, ptr, i32, ptr, i32, i32, i32, ptr, ptr, ptr, ptr, ptr, i32, i32, ptr, ptr, ptr, i32, i32, i32, i32, ptr, ptr, [6 x ptr] }
%struct._zend_op = type { ptr, %union._znode_op, %union._znode_op, %union._znode_op, i32, i32, i8, i8, i8, i8 }
%union._znode_op = type { i32 }
%struct._zend_array = type { %struct._zend_refcounted_h, %union.anon.4, i32, %union.anon.6, i32, i32, i32, i32, i64, ptr }
%struct._zend_refcounted_h = type { i32, %union.anon.3 }
%union.anon.3 = type { i32 }
%union.anon.4 = type { i32 }
%union.anon.6 = type { ptr }
%struct.zend_get_gc_buffer = type { ptr, ptr, ptr }
%struct._zend_call_stack = type { ptr, i64 }
%struct._zend_strtod_state = type { [8 x ptr], ptr, ptr }
%struct._zend_execute_data = type { ptr, ptr, ptr, ptr, %struct._zval_struct, ptr, ptr, ptr, ptr }
%struct._zend_string = type { %struct._zend_refcounted_h, i64, i64, [1 x i8] }
%struct.anon.0 = type { i8, i8, %union.anon.1 }
%union.anon.1 = type { i16 }
%struct._Bucket = type { %struct._zval_struct, i64, ptr }

@executor_globals = external global %struct._zend_executor_globals, align 8
@zend_known_strings = external global ptr, align 8
@.str.38 = private unnamed_addr constant [3 x i8] c"|b\00", align 1
@.str.39 = private unnamed_addr constant [74 x i8] c"get_defined_functions(): Setting $exclude_disabled to false has no effect\00", align 1
@.str.40 = private unnamed_addr constant [9 x i8] c"internal\00", align 1

; Function Attrs: alwaysinline nounwind uwtable
define internal i32 @zend_gc_addref(ptr noundef %0) #5 {
  %2 = alloca ptr, align 8
  store ptr %0, ptr %2, align 8, !tbaa !128
  br label %3

3:                                                ; preds = %1
  br label %4

4:                                                ; preds = %3
  %5 = load ptr, ptr %2, align 8, !tbaa !128
  %6 = getelementptr inbounds nuw %struct._zend_refcounted_h, ptr %5, i32 0, i32 0
  %7 = load i32, ptr %6, align 4, !tbaa !130
  %8 = add i32 %7, 1
  store i32 %8, ptr %6, align 4, !tbaa !130
  ret i32 %8
}

; Function Attrs: alwaysinline nounwind uwtable
define internal i32 @zval_gc_flags(i32 noundef %0) #5 {
  %2 = alloca i32, align 4
  store i32 %0, ptr %2, align 4, !tbaa !4
  %3 = load i32, ptr %2, align 4, !tbaa !4
  %4 = lshr i32 %3, 0
  %5 = and i32 %4, 1008
  ret i32 %5
}

; Function Attrs: alwaysinline nounwind uwtable
define internal ptr @zend_string_copy(ptr noundef %0) #5 {
  %2 = alloca ptr, align 8
  store ptr %0, ptr %2, align 8, !tbaa !32
  %3 = load ptr, ptr %2, align 8, !tbaa !32
  %4 = getelementptr inbounds nuw %struct._zend_string, ptr %3, i32 0, i32 0
  %5 = getelementptr inbounds nuw %struct._zend_refcounted_h, ptr %4, i32 0, i32 1
  %6 = load i32, ptr %5, align 4, !tbaa !31
  %7 = call i32 @zval_gc_flags(i32 noundef %6)
  %8 = and i32 %7, 64
  %9 = icmp ne i32 %8, 0
  br i1 %9, label %14, label %10

10:                                               ; preds = %1
  %11 = load ptr, ptr %2, align 8, !tbaa !32
  %12 = getelementptr inbounds nuw %struct._zend_string, ptr %11, i32 0, i32 0
  %13 = call i32 @zend_gc_addref(ptr noundef %12)
  br label %14

14:                                               ; preds = %10, %1
  %15 = load ptr, ptr %2, align 8, !tbaa !32
  ret ptr %15
}

; Function Attrs: alwaysinline nounwind uwtable
define internal zeroext i8 @zval_get_type(ptr noundef %0) #5 {
  %2 = alloca ptr, align 8
  store ptr %0, ptr %2, align 8, !tbaa !67
  %3 = load ptr, ptr %2, align 8, !tbaa !67
  %4 = getelementptr inbounds nuw %struct._zval_struct, ptr %3, i32 0, i32 1
  %5 = getelementptr inbounds nuw %struct.anon.0, ptr %4, i32 0, i32 0
  %6 = load i8, ptr %5, align 8, !tbaa !31
  ret i8 %6
}

; Function Attrs: nounwind uwtable
define hidden void @zif_get_defined_functions(ptr noundef %0, ptr noundef %1) #0 {
  %3 = alloca ptr, align 8
  %4 = alloca ptr, align 8
  %5 = alloca %struct._zval_struct, align 8
  %6 = alloca %struct._zval_struct, align 8
  %7 = alloca ptr, align 8
  %8 = alloca ptr, align 8
  %9 = alloca i8, align 1
  %10 = alloca i32, align 4
  %11 = alloca ptr, align 8
  %12 = alloca ptr, align 8
  %13 = alloca ptr, align 8
  %14 = alloca ptr, align 8
  %15 = alloca ptr, align 8
  %16 = alloca ptr, align 8
  %17 = alloca ptr, align 8
  %18 = alloca ptr, align 8
  %19 = alloca ptr, align 8
  %20 = alloca ptr, align 8
  store ptr %0, ptr %3, align 8, !tbaa !66
  store ptr %1, ptr %4, align 8, !tbaa !67
  call void @llvm.lifetime.start.p0(i64 16, ptr %5) #14
  call void @llvm.lifetime.start.p0(i64 16, ptr %6) #14
  call void @llvm.lifetime.start.p0(i64 8, ptr %7) #14
  call void @llvm.lifetime.start.p0(i64 8, ptr %8) #14
  call void @llvm.lifetime.start.p0(i64 1, ptr %9) #14
  store i8 1, ptr %9, align 1, !tbaa !70
  %21 = load ptr, ptr %3, align 8, !tbaa !66
  %22 = getelementptr inbounds nuw %struct._zend_execute_data, ptr %21, i32 0, i32 4
  %23 = getelementptr inbounds nuw %struct._zval_struct, ptr %22, i32 0, i32 2
  %24 = load i32, ptr %23, align 4, !tbaa !31
  %25 = call i32 (i32, ptr, ...) @zend_parse_parameters(i32 noundef %24, ptr noundef @.str.38, ptr noundef %9)
  %26 = icmp eq i32 %25, -1
  br i1 %26, label %27, label %33

27:                                               ; preds = %2
  br label %28

28:                                               ; preds = %27
  %29 = load ptr, ptr getelementptr inbounds nuw (%struct._zend_executor_globals, ptr @executor_globals, i32 0, i32 54), align 8, !tbaa !75
  %30 = icmp ne ptr %29, null
  call void @llvm.assume(i1 %30)
  store i32 1, ptr %10, align 4
  br label %163

31:                                               ; No predecessors!
  br label %32

32:                                               ; preds = %31
  br label %33

33:                                               ; preds = %32, %2
  %34 = load i8, ptr %9, align 1, !tbaa !70, !range !71, !noundef !72
  %35 = trunc i8 %34 to i1
  %36 = zext i1 %35 to i32
  %37 = icmp eq i32 %36, 0
  br i1 %37, label %38, label %39

38:                                               ; preds = %33
  call void (i32, ptr, ...) @zend_error(i32 noundef 8192, ptr noundef @.str.39)
  br label %39

39:                                               ; preds = %38, %33
  br label %40

40:                                               ; preds = %39
  call void @llvm.lifetime.start.p0(i64 8, ptr %11) #14
  %41 = call ptr @_zend_new_array_0()
  store ptr %41, ptr %11, align 8, !tbaa !83
  call void @llvm.lifetime.start.p0(i64 8, ptr %12) #14
  store ptr %5, ptr %12, align 8, !tbaa !67
  %42 = load ptr, ptr %11, align 8, !tbaa !83
  %43 = load ptr, ptr %12, align 8, !tbaa !67
  %44 = getelementptr inbounds nuw %struct._zval_struct, ptr %43, i32 0, i32 0
  store ptr %42, ptr %44, align 8, !tbaa !31
  %45 = load ptr, ptr %12, align 8, !tbaa !67
  %46 = getelementptr inbounds nuw %struct._zval_struct, ptr %45, i32 0, i32 1
  store i32 775, ptr %46, align 8, !tbaa !31
  call void @llvm.lifetime.end.p0(i64 8, ptr %12) #14
  call void @llvm.lifetime.end.p0(i64 8, ptr %11) #14
  br label %47

47:                                               ; preds = %40
  br label %48

48:                                               ; preds = %47
  br label %49

49:                                               ; preds = %48
  call void @llvm.lifetime.start.p0(i64 8, ptr %13) #14
  %50 = call ptr @_zend_new_array_0()
  store ptr %50, ptr %13, align 8, !tbaa !83
  call void @llvm.lifetime.start.p0(i64 8, ptr %14) #14
  store ptr %6, ptr %14, align 8, !tbaa !67
  %51 = load ptr, ptr %13, align 8, !tbaa !83
  %52 = load ptr, ptr %14, align 8, !tbaa !67
  %53 = getelementptr inbounds nuw %struct._zval_struct, ptr %52, i32 0, i32 0
  store ptr %51, ptr %53, align 8, !tbaa !31
  %54 = load ptr, ptr %14, align 8, !tbaa !67
  %55 = getelementptr inbounds nuw %struct._zval_struct, ptr %54, i32 0, i32 1
  store i32 775, ptr %55, align 8, !tbaa !31
  call void @llvm.lifetime.end.p0(i64 8, ptr %14) #14
  call void @llvm.lifetime.end.p0(i64 8, ptr %13) #14
  br label %56

56:                                               ; preds = %49
  br label %57

57:                                               ; preds = %56
  br label %58

58:                                               ; preds = %57
  call void @llvm.lifetime.start.p0(i64 8, ptr %15) #14
  %59 = call ptr @_zend_new_array_0()
  store ptr %59, ptr %15, align 8, !tbaa !83
  call void @llvm.lifetime.start.p0(i64 8, ptr %16) #14
  %60 = load ptr, ptr %4, align 8, !tbaa !67
  store ptr %60, ptr %16, align 8, !tbaa !67
  %61 = load ptr, ptr %15, align 8, !tbaa !83
  %62 = load ptr, ptr %16, align 8, !tbaa !67
  %63 = getelementptr inbounds nuw %struct._zval_struct, ptr %62, i32 0, i32 0
  store ptr %61, ptr %63, align 8, !tbaa !31
  %64 = load ptr, ptr %16, align 8, !tbaa !67
  %65 = getelementptr inbounds nuw %struct._zval_struct, ptr %64, i32 0, i32 1
  store i32 775, ptr %65, align 8, !tbaa !31
  call void @llvm.lifetime.end.p0(i64 8, ptr %16) #14
  call void @llvm.lifetime.end.p0(i64 8, ptr %15) #14
  br label %66

66:                                               ; preds = %58
  br label %67

67:                                               ; preds = %66
  br label %68

68:                                               ; preds = %67
  call void @llvm.lifetime.start.p0(i64 8, ptr %17) #14
  %69 = load ptr, ptr getelementptr inbounds nuw (%struct._zend_executor_globals, ptr @executor_globals, i32 0, i32 12), align 8, !tbaa !172
  store ptr %69, ptr %17, align 8, !tbaa !83
  call void @llvm.lifetime.start.p0(i64 8, ptr %18) #14
  %70 = load ptr, ptr %17, align 8, !tbaa !83
  %71 = getelementptr inbounds nuw %struct._zend_array, ptr %70, i32 0, i32 3
  %72 = load ptr, ptr %71, align 8, !tbaa !31
  %73 = getelementptr inbounds %struct._Bucket, ptr %72, i64 0
  store ptr %73, ptr %18, align 8, !tbaa !123
  call void @llvm.lifetime.start.p0(i64 8, ptr %19) #14
  %74 = load ptr, ptr %17, align 8, !tbaa !83
  %75 = getelementptr inbounds nuw %struct._zend_array, ptr %74, i32 0, i32 3
  %76 = load ptr, ptr %75, align 8, !tbaa !31
  %77 = load ptr, ptr %17, align 8, !tbaa !83
  %78 = getelementptr inbounds nuw %struct._zend_array, ptr %77, i32 0, i32 4
  %79 = load i32, ptr %78, align 8, !tbaa !103
  %80 = zext i32 %79 to i64
  %81 = getelementptr inbounds nuw %struct._Bucket, ptr %76, i64 %80
  store ptr %81, ptr %19, align 8, !tbaa !123
  %82 = load ptr, ptr %17, align 8, !tbaa !83
  %83 = getelementptr inbounds nuw %struct._zend_array, ptr %82, i32 0, i32 1
  %84 = load i32, ptr %83, align 8, !tbaa !31
  %85 = and i32 %84, 4
  %86 = icmp ne i32 %85, 0
  %87 = xor i1 %86, true
  call void @llvm.assume(i1 %87)
  br label %88

88:                                               ; preds = %146, %68
  %89 = load ptr, ptr %18, align 8, !tbaa !123
  %90 = load ptr, ptr %19, align 8, !tbaa !123
  %91 = icmp ne ptr %89, %90
  br i1 %91, label %92, label %149

92:                                               ; preds = %88
  call void @llvm.lifetime.start.p0(i64 8, ptr %20) #14
  %93 = load ptr, ptr %18, align 8, !tbaa !123
  %94 = getelementptr inbounds nuw %struct._Bucket, ptr %93, i32 0, i32 0
  store ptr %94, ptr %20, align 8, !tbaa !67
  %95 = load ptr, ptr %20, align 8, !tbaa !67
  %96 = call zeroext i8 @zval_get_type(ptr noundef %95)
  %97 = zext i8 %96 to i32
  %98 = icmp eq i32 %97, 0
  %99 = xor i1 %98, true
  %100 = xor i1 %99, true
  %101 = zext i1 %100 to i32
  %102 = sext i32 %101 to i64
  %103 = call i64 @llvm.expect.i64(i64 %102, i64 0)
  %104 = icmp ne i64 %103, 0
  br i1 %104, label %105, label %106

105:                                              ; preds = %92
  store i32 14, ptr %10, align 4
  br label %143

106:                                              ; preds = %92
  %107 = load ptr, ptr %18, align 8, !tbaa !123
  %108 = getelementptr inbounds nuw %struct._Bucket, ptr %107, i32 0, i32 2
  %109 = load ptr, ptr %108, align 8, !tbaa !127
  store ptr %109, ptr %7, align 8, !tbaa !32
  %110 = load ptr, ptr %20, align 8, !tbaa !67
  %111 = getelementptr inbounds nuw %struct._zval_struct, ptr %110, i32 0, i32 0
  %112 = load ptr, ptr %111, align 8, !tbaa !31
  store ptr %112, ptr %8, align 8, !tbaa !150
  %113 = load ptr, ptr %7, align 8, !tbaa !32
  %114 = icmp ne ptr %113, null
  br i1 %114, label %115, label %142

115:                                              ; preds = %106
  %116 = load ptr, ptr %7, align 8, !tbaa !32
  %117 = getelementptr inbounds nuw %struct._zend_string, ptr %116, i32 0, i32 3
  %118 = getelementptr inbounds [1 x i8], ptr %117, i64 0, i64 0
  %119 = load i8, ptr %118, align 8, !tbaa !31
  %120 = sext i8 %119 to i32
  %121 = icmp ne i32 %120, 0
  br i1 %121, label %122, label %142

122:                                              ; preds = %115
  %123 = load ptr, ptr %8, align 8, !tbaa !150
  %124 = load i8, ptr %123, align 8, !tbaa !31
  %125 = zext i8 %124 to i32
  %126 = icmp eq i32 %125, 1
  br i1 %126, label %127, label %131

127:                                              ; preds = %122
  %128 = load ptr, ptr %7, align 8, !tbaa !32
  %129 = call ptr @zend_string_copy(ptr noundef %128)
  %130 = call i32 @add_next_index_str(ptr noundef %5, ptr noundef %129)
  br label %141

131:                                              ; preds = %122
  %132 = load ptr, ptr %8, align 8, !tbaa !150
  %133 = load i8, ptr %132, align 8, !tbaa !31
  %134 = zext i8 %133 to i32
  %135 = icmp eq i32 %134, 2
  br i1 %135, label %136, label %140

136:                                              ; preds = %131
  %137 = load ptr, ptr %7, align 8, !tbaa !32
  %138 = call ptr @zend_string_copy(ptr noundef %137)
  %139 = call i32 @add_next_index_str(ptr noundef %6, ptr noundef %138)
  br label %140

140:                                              ; preds = %136, %131
  br label %141

141:                                              ; preds = %140, %127
  br label %142

142:                                              ; preds = %141, %115, %106
  store i32 0, ptr %10, align 4
  br label %143

143:                                              ; preds = %142, %105
  call void @llvm.lifetime.end.p0(i64 8, ptr %20) #14
  %144 = load i32, ptr %10, align 4
  switch i32 %144, label %166 [
    i32 0, label %145
    i32 14, label %146
  ]

145:                                              ; preds = %143
  br label %146

146:                                              ; preds = %145, %143
  %147 = load ptr, ptr %18, align 8, !tbaa !123
  %148 = getelementptr inbounds nuw %struct._Bucket, ptr %147, i32 1
  store ptr %148, ptr %18, align 8, !tbaa !123
  br label %88

149:                                              ; preds = %88
  call void @llvm.lifetime.end.p0(i64 8, ptr %19) #14
  call void @llvm.lifetime.end.p0(i64 8, ptr %18) #14
  call void @llvm.lifetime.end.p0(i64 8, ptr %17) #14
  br label %150

150:                                              ; preds = %149
  br label %151

151:                                              ; preds = %150
  %152 = load ptr, ptr %4, align 8, !tbaa !67
  %153 = getelementptr inbounds nuw %struct._zval_struct, ptr %152, i32 0, i32 0
  %154 = load ptr, ptr %153, align 8, !tbaa !31
  %155 = call ptr @zend_hash_str_add_new(ptr noundef %154, ptr noundef @.str.40, i64 noundef 8, ptr noundef %5)
  %156 = load ptr, ptr %4, align 8, !tbaa !67
  %157 = getelementptr inbounds nuw %struct._zval_struct, ptr %156, i32 0, i32 0
  %158 = load ptr, ptr %157, align 8, !tbaa !31
  %159 = load ptr, ptr @zend_known_strings, align 8, !tbaa !77
  %160 = getelementptr inbounds ptr, ptr %159, i64 33
  %161 = load ptr, ptr %160, align 8, !tbaa !32
  %162 = call ptr @zend_hash_add_new(ptr noundef %158, ptr noundef %161, ptr noundef %6)
  store i32 0, ptr %10, align 4
  br label %163

163:                                              ; preds = %151, %28
  call void @llvm.lifetime.end.p0(i64 1, ptr %9) #14
  call void @llvm.lifetime.end.p0(i64 8, ptr %8) #14
  call void @llvm.lifetime.end.p0(i64 8, ptr %7) #14
  call void @llvm.lifetime.end.p0(i64 16, ptr %6) #14
  call void @llvm.lifetime.end.p0(i64 16, ptr %5) #14
  %164 = load i32, ptr %10, align 4
  switch i32 %164, label %166 [
    i32 0, label %165
    i32 1, label %165
  ]

165:                                              ; preds = %163, %163
  ret void

166:                                              ; preds = %163, %143
  unreachable
}