; Function Attrs: nounwind uwtable
define hidden void @zif_get_defined_functions(ptr noundef readonly captures(none) %0, ptr noundef captures(none) %1) #0 {
  %3 = alloca %struct._zval_struct, align 8
  %4 = alloca %struct._zval_struct, align 8
  %5 = alloca i8, align 1
  call void @llvm.lifetime.start.p0(i64 16, ptr nonnull %3) #14
  call void @llvm.lifetime.start.p0(i64 16, ptr nonnull %4) #14
  call void @llvm.lifetime.start.p0(i64 1, ptr nonnull %5) #14
  store i8 1, ptr %5, align 1, !tbaa !110
  %6 = getelementptr inbounds nuw i8, ptr %0, i64 44
  %7 = load i32, ptr %6, align 4, !tbaa !28
  %8 = call i32 (i32, ptr, ...) @zend_parse_parameters(i32 noundef %7, ptr noundef nonnull @.str.38, ptr noundef nonnull %5) #14
  %9 = icmp eq i32 %8, -1
  br i1 %9, label %10, label %13

10:                                               ; preds = %2
  %11 = load ptr, ptr getelementptr inbounds nuw (i8, ptr @executor_globals, i64 960), align 8, !tbaa !67
  %12 = icmp ne ptr %11, null
  call void @llvm.assume(i1 %12)
  br label %66

13:                                               ; preds = %2
  %14 = load i8, ptr %5, align 1, !tbaa !110, !range !73, !noundef !74
  %15 = icmp eq i8 %14, 0
  br i1 %15, label %16, label %17

16:                                               ; preds = %13
  call void (i32, ptr, ...) @zend_error(i32 noundef 8192, ptr noundef nonnull @.str.39) #14
  br label %17

17:                                               ; preds = %13, %16
  %18 = call ptr @_zend_new_array_0() #14
  store ptr %18, ptr %3, align 8, !tbaa !28
  %19 = getelementptr inbounds nuw i8, ptr %3, i64 8
  store i32 775, ptr %19, align 8, !tbaa !28
  %20 = call ptr @_zend_new_array_0() #14
  store ptr %20, ptr %4, align 8, !tbaa !28
  %21 = getelementptr inbounds nuw i8, ptr %4, i64 8
  store i32 775, ptr %21, align 8, !tbaa !28
  %22 = call ptr @_zend_new_array_0() #14
  store ptr %22, ptr %1, align 8, !tbaa !28
  %23 = getelementptr inbounds nuw i8, ptr %1, i64 8
  store i32 775, ptr %23, align 8, !tbaa !28
  %24 = load ptr, ptr getelementptr inbounds nuw (i8, ptr @executor_globals, i64 456), align 8, !tbaa !162
  %25 = getelementptr inbounds nuw i8, ptr %24, i64 16
  %26 = load ptr, ptr %25, align 8, !tbaa !28
  %27 = getelementptr inbounds nuw i8, ptr %24, i64 24
  %28 = load i32, ptr %27, align 8, !tbaa !90
  %29 = zext i32 %28 to i64
  %30 = getelementptr inbounds nuw %struct._Bucket, ptr %26, i64 %29
  %31 = getelementptr inbounds nuw i8, ptr %24, i64 8
  %32 = load i32, ptr %31, align 8, !tbaa !28
  %33 = and i32 %32, 4
  %.not = icmp eq i32 %33, 0
  call void @llvm.assume(i1 %.not)
  %.not3237 = icmp eq i32 %28, 0
  br i1 %.not3237, label %._crit_edge, label %.lr.ph

.lr.ph:                                           ; preds = %17, %57
  %.038 = phi ptr [ %58, %57 ], [ %26, %17 ]
  %34 = getelementptr inbounds nuw i8, ptr %.038, i64 8
  %35 = load i8, ptr %34, align 8, !tbaa !28
  %36 = icmp eq i8 %35, 0
  br i1 %36, label %57, label %37, !prof !62

37:                                               ; preds = %.lr.ph
  %38 = getelementptr inbounds nuw i8, ptr %.038, i64 24
  %39 = load ptr, ptr %38, align 8, !tbaa !116
  %40 = load ptr, ptr %.038, align 8, !tbaa !28
  %.not33 = icmp eq ptr %39, null
  br i1 %.not33, label %57, label %41

41:                                               ; preds = %37
  %42 = getelementptr inbounds nuw i8, ptr %39, i64 24
  %43 = load i8, ptr %42, align 8, !tbaa !28
  %.not34 = icmp eq i8 %43, 0
  br i1 %.not34, label %57, label %44

44:                                               ; preds = %41
  %45 = load i8, ptr %40, align 8, !tbaa !28
  switch i8 %45, label %57 [
    i8 1, label %46
    i8 2, label %50
  ]

46:                                               ; preds = %44
  %47 = getelementptr inbounds nuw i8, ptr %39, i64 4
  %48 = load i32, ptr %47, align 4, !tbaa !28
  %49 = and i32 %48, 64
  %.not.i35 = icmp eq i32 %49, 0
  br i1 %.not.i35, label %.sink.split.sink.split, label %.sink.split

50:                                               ; preds = %44
  %51 = getelementptr inbounds nuw i8, ptr %39, i64 4
  %52 = load i32, ptr %51, align 4, !tbaa !28
  %53 = and i32 %52, 64
  %.not.i = icmp eq i32 %53, 0
  br i1 %.not.i, label %.sink.split.sink.split, label %.sink.split

.sink.split.sink.split:                           ; preds = %50, %46
  %.sink.ph = phi ptr [ %3, %46 ], [ %4, %50 ]
  %54 = load i32, ptr %39, align 4, !tbaa !30
  %55 = add i32 %54, 1
  store i32 %55, ptr %39, align 4, !tbaa !30
  br label %.sink.split

.sink.split:                                      ; preds = %.sink.split.sink.split, %50, %46
  %.sink = phi ptr [ %3, %46 ], [ %4, %50 ], [ %.sink.ph, %.sink.split.sink.split ]
  %56 = call i32 @add_next_index_str(ptr noundef nonnull %.sink, ptr noundef nonnull %39) #14
  br label %57

57:                                               ; preds = %.sink.split, %37, %41, %44, %.lr.ph
  %58 = getelementptr inbounds nuw i8, ptr %.038, i64 32
  %.not32 = icmp eq ptr %58, %30
  br i1 %.not32, label %._crit_edge.loopexit, label %.lr.ph

._crit_edge.loopexit:                             ; preds = %57
  %.pre = load ptr, ptr %1, align 8, !tbaa !28
  br label %._crit_edge

._crit_edge:                                      ; preds = %._crit_edge.loopexit, %17
  %59 = phi ptr [ %.pre, %._crit_edge.loopexit ], [ %22, %17 ]
  %60 = call ptr @zend_hash_str_add_new(ptr noundef %59, ptr noundef nonnull @.str.40, i64 noundef 8, ptr noundef nonnull %3) #14
  %61 = load ptr, ptr %1, align 8, !tbaa !28
  %62 = load ptr, ptr @zend_known_strings, align 8, !tbaa !100
  %63 = getelementptr inbounds nuw i8, ptr %62, i64 264
  %64 = load ptr, ptr %63, align 8, !tbaa !60
  %65 = call ptr @zend_hash_add_new(ptr noundef %61, ptr noundef %64, ptr noundef nonnull %4) #14
  br label %66

66:                                               ; preds = %._crit_edge, %10
  call void @llvm.lifetime.end.p0(i64 1, ptr nonnull %5) #14
  call void @llvm.lifetime.end.p0(i64 16, ptr nonnull %4) #14
  call void @llvm.lifetime.end.p0(i64 16, ptr nonnull %3) #14
  ret void
}